-----BEGIN PRIVATE KEY-----
MIICdgIBADANBgkqhkiG9w0BAQEFAASCAmAwggJcAgEAAoGBAMK1Jr8Vo9nwKUuE
3FPtMFd7fv8nOnnU31Er2kfaQiEVvV8C+ngSmy8o4+rK2F76r6npVFMRMEnUlc9E
DV3WAGQ39bFi+ZNHASJ2pDsyPcjardrauBS+Wwxknc61dvc6Eg5Oo0wLGZ6V+SbW
EePG+G3NrCbERkmd4GQnlkoHmGlLAgMBAAECgYAsIW7kxHzcuqhBa52ckBfy3BTO
tA926Z6sASp6OqfeY9UGIeCvMlhl+fiekNc1v8/szOvF4BF3ym0iCySUbhqsNyMS
ma6G4UjG9XghFIiHgZR3qVGD65duzgmZ/vgPkfV+Y6Tpn1AuC9FY++PmG5rKGWgL
lFOZgzY5jd6IHyuuMQJBAOKzkrKLUlkZJCnGMBubsqMlHmIAO3pXsr3dJTGXA81J
hD3yrRPrbBFNK62QTf8ClUEu8cjX00XnamQsbb+yN/cCQQDb3w+dAVtew1lLMbCP
1RDE21Yr+GMw3AyE7oFQjLvcYAYZUbTZb/DAc4HgJBI43WDM+k/Ts/0aT/Y2H9JT
EgxNAkA0S5RVl4oBf6k18b/7Pmlw9QkTNlaCHGThI3iG/f0kiAb3e1mttKsTOqgO
u7EiWGgxxzCDUjYsc/u46/7NL8F1AkEAvE7pr11XJO0ID/eJsVYZG5CC1/vO8Cy2
aC9g/1zZFGAFOTAaRNOzjRAgXphmJt+rJUMIlVck4aE0TJyqZM0jTQJAJgTCSjbp
SpRxRyGvLOMoW93XV4xf3oG3hZCmbswRuvLDSA76ex+fSbNp+RFBJHPKKRd4A/0X
Gv/NstAU38xQ3A==
-----END PRIVATE KEY-----
Certificate:
    Data:
        Version: 1 (0x0)
        Serial Number: 37391 (0x920f)
    Signature Algorithm: md5WithRSAEncryption
        Issuer: C=US, ST=California, L=Marina Del Rey, O=DETER Network Security Testbed, OU=Certificate Authority, CN=boss.isi.deterlab.net/emailAddress=testbed-ops@isi.deterlab.net
        Validity
            Not Before: Mar 23 16:58:49 2020 GMT
            Not After : Dec 18 16:58:49 2022 GMT
        Subject: C=US, ST=California, O=DETER Network Security Testbed, OU=sslxmlrpc, CN=8d7369ac-6d27-11ea-a846-40a8f01f52b4/emailAddress=uolcomcq@isi.deterlab.net
        Subject Public Key Info:
            Public Key Algorithm: rsaEncryption
                Public-Key: (1024 bit)
                Modulus:
                    00:c2:b5:26:bf:15:a3:d9:f0:29:4b:84:dc:53:ed:
                    30:57:7b:7e:ff:27:3a:79:d4:df:51:2b:da:47:da:
                    42:21:15:bd:5f:02:fa:78:12:9b:2f:28:e3:ea:ca:
                    d8:5e:fa:af:a9:e9:54:53:11:30:49:d4:95:cf:44:
                    0d:5d:d6:00:64:37:f5:b1:62:f9:93:47:01:22:76:
                    a4:3b:32:3d:c8:da:ad:da:da:b8:14:be:5b:0c:64:
                    9d:ce:b5:76:f7:3a:12:0e:4e:a3:4c:0b:19:9e:95:
                    f9:26:d6:11:e3:c6:f8:6d:cd:ac:26:c4:46:49:9d:
                    e0:64:27:96:4a:07:98:69:4b
                Exponent: 65537 (0x10001)
    Signature Algorithm: md5WithRSAEncryption
         36:29:47:10:a0:0c:ac:86:e0:e1:9b:ba:67:46:35:dc:c9:67:
         11:51:3d:a7:0d:bb:d5:f1:89:b9:da:0e:91:84:ad:d0:96:80:
         48:b1:fd:58:24:7e:7c:f6:33:73:17:78:35:51:7f:55:62:ab:
         8d:d7:75:bd:77:04:74:39:e0:8c:cd:fb:6a:0e:1f:cb:7d:cf:
         5b:06:8e:a1:f9:bf:c2:7c:16:57:29:94:49:41:da:ba:91:22:
         a2:a0:82:33:57:c3:92:ae:41:cf:9a:dc:19:90:09:d8:99:5c:
         c9:c9:2b:48:dd:61:da:bd:57:73:f7:d0:4a:da:93:4f:1a:6f:
         10:42
-----BEGIN CERTIFICATE-----
MIIC/DCCAmUCAwCSDzANBgkqhkiG9w0BAQQFADCB0TELMAkGA1UEBhMCVVMxEzAR
BgNVBAgTCkNhbGlmb3JuaWExFzAVBgNVBAcTDk1hcmluYSBEZWwgUmV5MScwJQYD
VQQKEx5ERVRFUiBOZXR3b3JrIFNlY3VyaXR5IFRlc3RiZWQxHjAcBgNVBAsTFUNl
cnRpZmljYXRlIEF1dGhvcml0eTEeMBwGA1UEAxMVYm9zcy5pc2kuZGV0ZXJsYWIu
bmV0MSswKQYJKoZIhvcNAQkBFhx0ZXN0YmVkLW9wc0Bpc2kuZGV0ZXJsYWIubmV0
MB4XDTIwMDMyMzE2NTg0OVoXDTIyMTIxODE2NTg0OVowgbgxCzAJBgNVBAYTAlVT
MRMwEQYDVQQIEwpDYWxpZm9ybmlhMScwJQYDVQQKEx5ERVRFUiBOZXR3b3JrIFNl
Y3VyaXR5IFRlc3RiZWQxEjAQBgNVBAsTCXNzbHhtbHJwYzEtMCsGA1UEAxMkOGQ3
MzY5YWMtNmQyNy0xMWVhLWE4NDYtNDBhOGYwMWY1MmI0MSgwJgYJKoZIhvcNAQkB
Fhl1b2xjb21jcUBpc2kuZGV0ZXJsYWIubmV0MIGfMA0GCSqGSIb3DQEBAQUAA4GN
ADCBiQKBgQDCtSa/FaPZ8ClLhNxT7TBXe37/Jzp51N9RK9pH2kIhFb1fAvp4Epsv
KOPqythe+q+p6VRTETBJ1JXPRA1d1gBkN/WxYvmTRwEidqQ7Mj3I2q3a2rgUvlsM
ZJ3OtXb3OhIOTqNMCxmelfkm1hHjxvhtzawmxEZJneBkJ5ZKB5hpSwIDAQABMA0G
CSqGSIb3DQEBBAUAA4GBADYpRxCgDKyG4OGbumdGNdzJZxFRPacNu9XxibnaDpGE
rdCWgEix/Vgkfnz2M3MXeDVRf1Viq43Xdb13BHQ54IzN+2oOH8t9z1sGjqH5v8J8
FlcplElB2rqRIqKggjNXw5KuQc+a3BmQCdiZXMnJK0jdYdq9V3P30Erak08abxBC
-----END CERTIFICATE-----
